; Function Attrs: mustprogress uwtable
define hidden void @_ZN7datalog30finite_product_relation_plugin16split_signaturesERKNS_18relation_signatureEPKbRNS_15table_signatureERS1_(ptr nocapture noundef nonnull readonly align 8 dereferenceable(112) %this, ptr nocapture noundef nonnull readonly align 8 dereferenceable(8) %s, ptr nocapture noundef readonly %table_columns, ptr noundef nonnull align 8 dereferenceable(12) %table_sig, ptr noundef nonnull align 8 dereferenceable(8) %remaining_sig) local_unnamed_addr #3 align 2 {
entry:
  %t_sort = alloca i64, align 8
  %m_manager.i = getelementptr inbounds i8, ptr %this, i64 24
  %0 = load ptr, ptr %m_manager.i, align 8
  %1 = load ptr, ptr %s, align 8
  %cmp.i = icmp eq ptr %1, null
  br i1 %cmp.i, label %for.end, label %_ZNK6vectorIP4sortLb0EjE4sizeEv.exit

_ZNK6vectorIP4sortLb0EjE4sizeEv.exit:             ; preds = %entry
  %arrayidx.i = getelementptr inbounds i8, ptr %1, i64 -4
  %2 = load i32, ptr %arrayidx.i, align 4
  %cmp27.not = icmp eq i32 %2, 0
  br i1 %cmp27.not, label %for.end, label %for.body.preheader

for.body.preheader:                               ; preds = %_ZNK6vectorIP4sortLb0EjE4sizeEv.exit
  %wide.trip.count = zext i32 %2 to i64
  br label %for.body

for.body:                                         ; preds = %for.body.preheader, %for.inc
  %indvars.iv = phi i64 [ 0, %for.body.preheader ], [ %indvars.iv.next, %for.inc ]
  %arrayidx = getelementptr inbounds i8, ptr %table_columns, i64 %indvars.iv
  %3 = load i8, ptr %arrayidx, align 1
  %4 = and i8 %3, 1
  %tobool.not = icmp eq i8 %4, 0
  %5 = load ptr, ptr %s, align 8
  %arrayidx.i12 = getelementptr inbounds ptr, ptr %5, i64 %indvars.iv
  br i1 %tobool.not, label %if.else, label %if.then

if.then:                                          ; preds = %for.body
  %call4 = call noundef zeroext i1 @_ZN7datalog16relation_manager22relation_sort_to_tableERKP4sortRm(ptr noundef nonnull align 8 dereferenceable(200) %0, ptr noundef nonnull align 8 dereferenceable(8) %arrayidx.i12, ptr noundef nonnull align 8 dereferenceable(8) %t_sort)
  br i1 %call4, label %if.end, label %if.then5

if.then5:                                         ; preds = %if.then
  call void @_Z26notify_assertion_violationPKciS0_(ptr noundef nonnull @.str.1, i32 noundef 133, ptr noundef nonnull @.str.2)
  call void @exit(i32 noundef 114) #22
  unreachable

if.end:                                           ; preds = %if.then
  %6 = load ptr, ptr %table_sig, align 8
  %cmp.i8 = icmp eq ptr %6, null
  br i1 %cmp.i8, label %if.then.i, label %lor.lhs.false.i

lor.lhs.false.i:                                  ; preds = %if.end
  %arrayidx.i9 = getelementptr inbounds i8, ptr %6, i64 -4
  %7 = load i32, ptr %arrayidx.i9, align 4
  %arrayidx4.i = getelementptr inbounds i8, ptr %6, i64 -8
  %8 = load i32, ptr %arrayidx4.i, align 4
  %cmp5.i = icmp eq i32 %7, %8
  br i1 %cmp5.i, label %if.then.i, label %_ZN6vectorImLb0EjE9push_backERKm.exit

if.then.i:                                        ; preds = %lor.lhs.false.i, %if.end
  call void @_ZN6vectorImLb0EjE13expand_vectorEv(ptr noundef nonnull align 8 dereferenceable(8) %table_sig)
  %.pre.i = load ptr, ptr %table_sig, align 8
  %arrayidx8.phi.trans.insert.i = getelementptr inbounds i8, ptr %.pre.i, i64 -4
  %.pre1.i = load i32, ptr %arrayidx8.phi.trans.insert.i, align 4
  br label %_ZN6vectorImLb0EjE9push_backERKm.exit

_ZN6vectorImLb0EjE9push_backERKm.exit:            ; preds = %lor.lhs.false.i, %if.then.i
  %9 = phi i32 [ %.pre1.i, %if.then.i ], [ %7, %lor.lhs.false.i ]
  %10 = phi ptr [ %.pre.i, %if.then.i ], [ %6, %lor.lhs.false.i ]
  %idx.ext.i = zext i32 %9 to i64
  %add.ptr.i = getelementptr inbounds i64, ptr %10, i64 %idx.ext.i
  %11 = load i64, ptr %t_sort, align 8
  store i64 %11, ptr %add.ptr.i, align 8
  br label %for.inc

if.else:                                          ; preds = %for.body
  %12 = load ptr, ptr %remaining_sig, align 8
  %cmp.i13 = icmp eq ptr %12, null
  br i1 %cmp.i13, label %if.then.i23, label %lor.lhs.false.i14

lor.lhs.false.i14:                                ; preds = %if.else
  %arrayidx.i15 = getelementptr inbounds i8, ptr %12, i64 -4
  %13 = load i32, ptr %arrayidx.i15, align 4
  %arrayidx4.i16 = getelementptr inbounds i8, ptr %12, i64 -8
  %14 = load i32, ptr %arrayidx4.i16, align 4
  %cmp5.i17 = icmp eq i32 %13, %14
  br i1 %cmp5.i17, label %if.then.i23, label %_ZN6vectorIP4sortLb0EjE9push_backERKS1_.exit

if.then.i23:                                      ; preds = %lor.lhs.false.i14, %if.else
  call void @_ZN6vectorIP4sortLb0EjE13expand_vectorEv(ptr noundef nonnull align 8 dereferenceable(8) %remaining_sig)
  %.pre.i24 = load ptr, ptr %remaining_sig, align 8
  %arrayidx8.phi.trans.insert.i25 = getelementptr inbounds i8, ptr %.pre.i24, i64 -4
  %.pre1.i26 = load i32, ptr %arrayidx8.phi.trans.insert.i25, align 4
  br label %_ZN6vectorIP4sortLb0EjE9push_backERKS1_.exit

_ZN6vectorIP4sortLb0EjE9push_backERKS1_.exit:     ; preds = %lor.lhs.false.i14, %if.then.i23
  %15 = phi i32 [ %.pre1.i26, %if.then.i23 ], [ %13, %lor.lhs.false.i14 ]
  %16 = phi ptr [ %.pre.i24, %if.then.i23 ], [ %12, %lor.lhs.false.i14 ]
  %idx.ext.i19 = zext i32 %15 to i64
  %add.ptr.i20 = getelementptr inbounds ptr, ptr %16, i64 %idx.ext.i19
  %17 = load ptr, ptr %arrayidx.i12, align 8
  store ptr %17, ptr %add.ptr.i20, align 8
  br label %for.inc

for.inc:                                          ; preds = %_ZN6vectorImLb0EjE9push_backERKm.exit, %_ZN6vectorIP4sortLb0EjE9push_backERKS1_.exit
  %table_sig.sink = phi ptr [ %table_sig, %_ZN6vectorImLb0EjE9push_backERKm.exit ], [ %remaining_sig, %_ZN6vectorIP4sortLb0EjE9push_backERKS1_.exit ]
  %18 = load ptr, ptr %table_sig.sink, align 8
  %arrayidx10.i = getelementptr inbounds i8, ptr %18, i64 -4
  %19 = load i32, ptr %arrayidx10.i, align 4
  %inc.i = add i32 %19, 1
  store i32 %inc.i, ptr %arrayidx10.i, align 4
  %indvars.iv.next = add nuw nsw i64 %indvars.iv, 1
  %exitcond.not = icmp eq i64 %indvars.iv.next, %wide.trip.count
  br i1 %exitcond.not, label %for.end, label %for.body, !llvm.loop !13

for.end:                                          ; preds = %for.inc, %entry, %_ZNK6vectorIP4sortLb0EjE4sizeEv.exit
  ret void
}